target datalayout = "e-m:e-p270:32:32-p271:32:32-p272:64:64-i64:64-i128:128-f80:128-n8:16:32:64-S128"
target triple = "x86_64-pc-linux-gnu"

@gbl_result = internal global i32 0, align 4
@.str.1 = private unnamed_addr constant [29 x i8] c"../openssl/test/exdatatest.c\00", align 1
@saved_argl = internal global i64 0, align 8
@saved_argp = internal global ptr null, align 8
@saved_idx = internal global i32 0, align 4
@.str.15 = private unnamed_addr constant [4 x i8] c"idx\00", align 1
@.str.16 = private unnamed_addr constant [10 x i8] c"saved_idx\00", align 1
@.str.17 = private unnamed_addr constant [5 x i8] c"argl\00", align 1
@.str.18 = private unnamed_addr constant [11 x i8] c"saved_argl\00", align 1
@.str.19 = private unnamed_addr constant [5 x i8] c"argp\00", align 1
@.str.20 = private unnamed_addr constant [11 x i8] c"saved_argp\00", align 1
@.str.22 = private unnamed_addr constant [7 x i8] c"from_d\00", align 1

; Function Attrs: nounwind uwtable
define internal i32 @exdup(ptr noundef %0, ptr noundef %1, ptr noundef %2, i32 noundef %3, i64 noundef %4, ptr noundef %5) #0 {
  %7 = alloca ptr, align 8
  %8 = alloca ptr, align 8
  %9 = alloca ptr, align 8
  %10 = alloca i32, align 4
  %11 = alloca i64, align 8
  %12 = alloca ptr, align 8
  store ptr %0, ptr %7, align 8, !tbaa !25
  store ptr %1, ptr %8, align 8, !tbaa !25
  store ptr %2, ptr %9, align 8, !tbaa !17
  store i32 %3, ptr %10, align 4, !tbaa !11
  store i64 %4, ptr %11, align 8, !tbaa !15
  store ptr %5, ptr %12, align 8, !tbaa !17
  %13 = load i32, ptr %10, align 4, !tbaa !11
  %14 = load i32, ptr @saved_idx, align 4, !tbaa !11
  %15 = call i32 @test_int_eq(ptr noundef @.str.1, i32 noundef 42, ptr noundef @.str.15, ptr noundef @.str.16, i32 noundef %13, i32 noundef %14)
  %16 = icmp ne i32 %15, 0
  br i1 %16, label %17, label %31

17:                                               ; preds = %6
  %18 = load i64, ptr %11, align 8, !tbaa !15
  %19 = load i64, ptr @saved_argl, align 8, !tbaa !15
  %20 = call i32 @test_long_eq(ptr noundef @.str.1, i32 noundef 43, ptr noundef @.str.17, ptr noundef @.str.18, i64 noundef %18, i64 noundef %19)
  %21 = icmp ne i32 %20, 0
  br i1 %21, label %22, label %31

22:                                               ; preds = %17
  %23 = load ptr, ptr %12, align 8, !tbaa !17
  %24 = load ptr, ptr @saved_argp, align 8, !tbaa !17
  %25 = call i32 @test_ptr_eq(ptr noundef @.str.1, i32 noundef 44, ptr noundef @.str.19, ptr noundef @.str.20, ptr noundef %23, ptr noundef %24)
  %26 = icmp ne i32 %25, 0
  br i1 %26, label %27, label %31

27:                                               ; preds = %22
  %28 = load ptr, ptr %9, align 8, !tbaa !17
  %29 = call i32 @test_ptr(ptr noundef @.str.1, i32 noundef 45, ptr noundef @.str.22, ptr noundef %28)
  %30 = icmp ne i32 %29, 0
  br i1 %30, label %32, label %31

31:                                               ; preds = %27, %22, %17, %6
  store i32 0, ptr @gbl_result, align 4, !tbaa !11
  br label %32

32:                                               ; preds = %31, %27
  ret i32 1
}